; Function Attrs: mustprogress uwtable
define dso_local noundef zeroext i1 @_ZNK27cmCMakePresetsGraphInternal12NotCondition8EvaluateERKSt6vectorISt10unique_ptrINS_13MacroExpanderESt14default_deleteIS3_EESaIS6_EEiRSt8optionalIbE(ptr nocapture noundef nonnull readonly align 8 dereferenceable(16) %0, ptr noundef nonnull align 8 dereferenceable(24) %1, i32 noundef %2, ptr noundef nonnull align 1 dereferenceable(2) %3) unnamed_addr #3 align 2 {
  %5 = getelementptr inbounds i8, ptr %3, i64 1
  %6 = load i8, ptr %5, align 1
  %7 = and i8 %6, 1
  %.not.i.i.i = icmp eq i8 %7, 0
  br i1 %.not.i.i.i, label %_ZNSt8optionalIbE5resetEv.exit, label %8

8:                                                ; preds = %4
  store i8 0, ptr %5, align 1
  br label %_ZNSt8optionalIbE5resetEv.exit

_ZNSt8optionalIbE5resetEv.exit:                   ; preds = %4, %8
  %9 = getelementptr inbounds i8, ptr %0, i64 8
  %10 = load ptr, ptr %9, align 8
  %11 = load ptr, ptr %10, align 8
  %12 = getelementptr inbounds i8, ptr %11, i64 16
  %13 = load ptr, ptr %12, align 8
  %14 = tail call noundef zeroext i1 %13(ptr noundef nonnull align 8 dereferenceable(8) %10, ptr noundef nonnull align 8 dereferenceable(24) %1, i32 noundef %2, ptr noundef nonnull align 1 dereferenceable(2) %3)
  %15 = load i8, ptr %5, align 1
  %16 = and i8 %15, 1
  %.not = icmp eq i8 %16, 0
  br i1 %14, label %19, label %17

17:                                               ; preds = %_ZNSt8optionalIbE5resetEv.exit
  br i1 %.not, label %_ZNSt8optionalIbE5resetEv.exit10, label %18

18:                                               ; preds = %17
  store i8 0, ptr %5, align 1
  br label %_ZNSt8optionalIbE5resetEv.exit10

19:                                               ; preds = %_ZNSt8optionalIbE5resetEv.exit
  br i1 %.not, label %_ZNSt8optionalIbE5resetEv.exit10, label %20

20:                                               ; preds = %19
  %21 = load i8, ptr %3, align 1
  %22 = and i8 %21, 1
  %23 = xor i8 %22, 1
  store i8 %23, ptr %3, align 1
  br label %_ZNSt8optionalIbE5resetEv.exit10

_ZNSt8optionalIbE5resetEv.exit10:                 ; preds = %18, %17, %19, %20
  ret i1 %14
}